; Function Attrs: nounwind
define internal fastcc void @demangle_binder(ptr noundef nonnull captures(none) %0) unnamed_addr #0 {
  %2 = getelementptr inbounds nuw i8, ptr %0, i64 40
  %3 = load i8, ptr %2, align 8, !tbaa !15, !range !24, !noundef !25
  %4 = trunc nuw i8 %3 to i1
  br i1 %4, label %5, label %6

5:                                                ; preds = %1
  store i8 1, ptr %2, align 8, !tbaa !15
  br label %print_str.exit14

6:                                                ; preds = %1
  %7 = getelementptr inbounds nuw i8, ptr %0, i64 32
  %8 = load i64, ptr %7, align 8, !tbaa !14
  %9 = getelementptr inbounds nuw i8, ptr %0, i64 8
  %10 = load i64, ptr %9, align 8, !tbaa !3
  %11 = icmp ult i64 %8, %10
  br i1 %11, label %peek.exit.i.i, label %print_str.exit14

peek.exit.i.i:                                    ; preds = %6
  %12 = load ptr, ptr %0, align 8, !tbaa !19
  %13 = getelementptr inbounds nuw i8, ptr %12, i64 %8
  %14 = load i8, ptr %13, align 1, !tbaa !21
  %15 = icmp eq i8 %14, 71
  br i1 %15, label %16, label %print_str.exit14

16:                                               ; preds = %peek.exit.i.i
  %17 = add nuw i64 %8, 1
  store i64 %17, ptr %7, align 8, !tbaa !14
  %18 = icmp ult i64 %17, %10
  br i1 %18, label %peek.exit.i.i.i, label %parse_opt_integer_62.exit.thread19.thread

peek.exit.i.i.i:                                  ; preds = %16
  %19 = getelementptr inbounds nuw i8, ptr %12, i64 %17
  %20 = load i8, ptr %19, align 1, !tbaa !21
  %21 = icmp eq i8 %20, 95
  br i1 %21, label %parse_opt_integer_62.exit.thread19.thread30, label %peek.exit.i33.i.i

parse_opt_integer_62.exit.thread19.thread30:      ; preds = %peek.exit.i.i.i
  %22 = add nuw i64 %8, 2
  store i64 %22, ptr %7, align 8, !tbaa !14
  br label %parse_opt_integer_62.exit.thread19

peek.exit.i33.i.i:                                ; preds = %peek.exit.i.i.i, %34
  %.028.i5.i = phi i64 [ %.129.i.i, %34 ], [ 0, %peek.exit.i.i.i ]
  %23 = phi i64 [ %26, %34 ], [ %17, %peek.exit.i.i.i ]
  %24 = getelementptr inbounds nuw i8, ptr %12, i64 %23
  %25 = load i8, ptr %24, align 1, !tbaa !21
  switch i8 %25, label %next.exit.i.i [
    i8 95, label %parse_opt_integer_62.exit
    i8 0, label %parse_opt_integer_62.exit.thread19.thread
  ]

next.exit.i.i:                                    ; preds = %peek.exit.i33.i.i
  %26 = add i64 %23, 1
  store i64 %26, ptr %7, align 8, !tbaa !14
  %27 = mul i64 %.028.i5.i, 62
  %28 = sext i8 %25 to i64
  %29 = add i8 %25, -48
  %or.cond.i.i = icmp ult i8 %29, 10
  br i1 %or.cond.i.i, label %34, label %30

30:                                               ; preds = %next.exit.i.i
  %31 = add i8 %25, -97
  %or.cond5.i.i = icmp ult i8 %31, 26
  br i1 %or.cond5.i.i, label %34, label %32

32:                                               ; preds = %30
  %33 = add i8 %25, -65
  %or.cond8.i.i = icmp ult i8 %33, 26
  br i1 %or.cond8.i.i, label %34, label %parse_opt_integer_62.exit.thread19.thread

parse_opt_integer_62.exit.thread19.thread:        ; preds = %peek.exit.i33.i.i, %32, %34, %16
  store i8 1, ptr %2, align 8, !tbaa !15
  br label %print_str.exit

34:                                               ; preds = %32, %30, %next.exit.i.i
  %.sink.i.i = phi i64 [ 4294967248, %next.exit.i.i ], [ 4294967209, %30 ], [ 4294967267, %32 ]
  %35 = add nsw i64 %.sink.i.i, %28
  %.pn.i.i = and i64 %35, 4294967295
  %.129.i.i = add i64 %.pn.i.i, %27
  %exitcond.not.i = icmp eq i64 %26, %10
  br i1 %exitcond.not.i, label %parse_opt_integer_62.exit.thread19.thread, label %peek.exit.i33.i.i, !llvm.loop !33

parse_opt_integer_62.exit:                        ; preds = %peek.exit.i33.i.i
  %36 = add nuw i64 %23, 1
  store i64 %36, ptr %7, align 8, !tbaa !14
  %37 = add i64 %.028.i5.i, 2
  %.not = icmp eq i64 %37, 0
  br i1 %.not, label %print_str.exit14, label %parse_opt_integer_62.exit.thread19

parse_opt_integer_62.exit.thread19:               ; preds = %parse_opt_integer_62.exit, %parse_opt_integer_62.exit.thread19.thread30
  %.0.i2232 = phi i64 [ 1, %parse_opt_integer_62.exit.thread19.thread30 ], [ %37, %parse_opt_integer_62.exit ]
  %38 = getelementptr inbounds nuw i8, ptr %0, i64 41
  %39 = load i8, ptr %38, align 1, !tbaa !16, !range !24, !noundef !25
  %40 = trunc nuw i8 %39 to i1
  br i1 %40, label %print_str.exit, label %41

41:                                               ; preds = %parse_opt_integer_62.exit.thread19
  %42 = getelementptr inbounds nuw i8, ptr %0, i64 24
  %43 = load ptr, ptr %42, align 8, !tbaa !13
  %44 = getelementptr inbounds nuw i8, ptr %0, i64 16
  %45 = load ptr, ptr %44, align 8, !tbaa !12
  tail call void %43(ptr noundef nonnull @.str.88, i64 noundef 4, ptr noundef %45) #11
  br label %print_str.exit

print_str.exit:                                   ; preds = %parse_opt_integer_62.exit.thread19.thread, %parse_opt_integer_62.exit.thread19, %41
  %.0.i2229 = phi i64 [ 1, %parse_opt_integer_62.exit.thread19.thread ], [ %.0.i2232, %parse_opt_integer_62.exit.thread19 ], [ %.0.i2232, %41 ]
  %46 = getelementptr inbounds nuw i8, ptr %0, i64 41
  %47 = getelementptr inbounds nuw i8, ptr %0, i64 24
  %48 = getelementptr inbounds nuw i8, ptr %0, i64 16
  %49 = getelementptr inbounds nuw i8, ptr %0, i64 48
  br label %59

50:                                               ; preds = %print_str.exit15
  %51 = load i8, ptr %2, align 8, !tbaa !15, !range !24, !noundef !25
  %52 = trunc nuw i8 %51 to i1
  br i1 %52, label %print_str.exit14, label %53

53:                                               ; preds = %50
  %54 = load i8, ptr %46, align 1, !tbaa !16, !range !24, !noundef !25
  %55 = trunc nuw i8 %54 to i1
  br i1 %55, label %print_str.exit14, label %56

56:                                               ; preds = %53
  %57 = load ptr, ptr %47, align 8, !tbaa !13
  %58 = load ptr, ptr %48, align 8, !tbaa !12
  tail call void %57(ptr noundef nonnull @.str.89, i64 noundef 2, ptr noundef %58) #11
  br label %print_str.exit14

59:                                               ; preds = %print_str.exit, %print_str.exit15
  %.025 = phi i64 [ 0, %print_str.exit ], [ %71, %print_str.exit15 ]
  %.not13 = icmp eq i64 %.025, 0
  br i1 %.not13, label %print_str.exit15, label %60

60:                                               ; preds = %59
  %61 = load i8, ptr %2, align 8, !tbaa !15, !range !24, !noundef !25
  %62 = trunc nuw i8 %61 to i1
  br i1 %62, label %print_str.exit15, label %63

63:                                               ; preds = %60
  %64 = load i8, ptr %46, align 1, !tbaa !16, !range !24, !noundef !25
  %65 = trunc nuw i8 %64 to i1
  br i1 %65, label %print_str.exit15, label %66

66:                                               ; preds = %63
  %67 = load ptr, ptr %47, align 8, !tbaa !13
  %68 = load ptr, ptr %48, align 8, !tbaa !12
  tail call void %67(ptr noundef nonnull @.str.36, i64 noundef 2, ptr noundef %68) #11
  br label %print_str.exit15

print_str.exit15:                                 ; preds = %66, %63, %60, %59
  %69 = load i64, ptr %49, align 8, !tbaa !18
  %70 = add i64 %69, 1
  store i64 %70, ptr %49, align 8, !tbaa !18
  tail call fastcc void @print_lifetime_from_index(ptr noundef %0, i64 noundef 1)
  %71 = add nuw i64 %.025, 1
  %exitcond.not = icmp eq i64 %71, %.0.i2229
  br i1 %exitcond.not, label %50, label %59, !llvm.loop !65

print_str.exit14:                                 ; preds = %6, %peek.exit.i.i, %56, %53, %50, %parse_opt_integer_62.exit, %5
  ret void
}